; Function Attrs: nounwind uwtable
define internal noundef ptr @lxb_html_tokenizer_state_char_ref_decimal_start(ptr nocapture noundef %0, ptr noundef returned %1, ptr nocapture readnone %2) #1 {
  %4 = load i8, ptr %1, align 1
  %5 = zext i8 %4 to i64
  %6 = add nsw i64 %5, -58
  %.not = icmp ult i64 %6, -10
  br i1 %.not, label %7, label %13

7:                                                ; preds = %3
  %8 = getelementptr inbounds i8, ptr %0, i64 88
  %9 = load ptr, ptr %8, align 8
  %10 = tail call ptr @lxb_html_tokenizer_error_add(ptr noundef %9, ptr noundef nonnull %1, i32 noundef 3) #5
  %11 = getelementptr inbounds i8, ptr %0, i64 8
  %12 = load ptr, ptr %11, align 8
  br label %13

13:                                               ; preds = %3, %7
  %storemerge = phi ptr [ %12, %7 ], [ @lxb_html_tokenizer_state_char_ref_decimal, %3 ]
  store ptr %storemerge, ptr %0, align 8
  ret ptr %1
}